target datalayout = "e-m:e-p270:32:32-p271:32:32-p272:64:64-i64:64-i128:128-f80:128-n8:16:32:64-S128"
target triple = "x86_64-pc-linux-gnu"

@hf_gtpv2_complete_req_msg_type = internal global i32 0, align 4
@nas_eps_handle = internal global ptr null, align 8

; Function Attrs: null_pointer_is_valid sspstrong uwtable
define internal void @dissect_complete_request_msg(ptr noundef %0, ptr noundef %1, ptr noundef %2, ptr noundef %3, i16 noundef zeroext %4, i8 noundef zeroext %5, i8 noundef zeroext %6, ptr noundef %7) #1 {
  %9 = alloca ptr, align 8
  %10 = alloca ptr, align 8
  %11 = alloca ptr, align 8
  %12 = alloca ptr, align 8
  %13 = alloca i16, align 2
  %14 = alloca i8, align 1
  %15 = alloca i8, align 1
  %16 = alloca ptr, align 8
  %17 = alloca ptr, align 8
  %18 = alloca i32, align 4
  store ptr %0, ptr %9, align 8
  store ptr %1, ptr %10, align 8
  store ptr %2, ptr %11, align 8
  store ptr %3, ptr %12, align 8
  store i16 %4, ptr %13, align 2
  store i8 %5, ptr %14, align 1
  store i8 %6, ptr %15, align 1
  store ptr %7, ptr %16, align 8
  call void @llvm.lifetime.start.p0(i64 8, ptr %17) #11
  call void @llvm.lifetime.start.p0(i64 4, ptr %18) #11
  store i32 0, ptr %18, align 4
  %19 = load ptr, ptr %11, align 8
  %20 = load i32, ptr @hf_gtpv2_complete_req_msg_type, align 4
  %21 = load ptr, ptr %9, align 8
  %22 = load i32, ptr %18, align 4
  %23 = call ptr @proto_tree_add_item(ptr noundef %19, i32 noundef %20, ptr noundef %21, i32 noundef %22, i32 noundef 1, i32 noundef 0)
  %24 = load i32, ptr %18, align 4
  %25 = add i32 %24, 1
  store i32 %25, ptr %18, align 4
  %26 = load ptr, ptr %9, align 8
  %27 = load i32, ptr %18, align 4
  %28 = load i16, ptr %13, align 2
  %29 = zext i16 %28 to i32
  %30 = sub i32 %29, 1
  %31 = call ptr @tvb_new_subset_length(ptr noundef %26, i32 noundef %27, i32 noundef %30)
  store ptr %31, ptr %17, align 8
  %32 = load ptr, ptr @nas_eps_handle, align 8
  %33 = load ptr, ptr %17, align 8
  %34 = load ptr, ptr %10, align 8
  %35 = load ptr, ptr %11, align 8
  %36 = call i32 @call_dissector(ptr noundef %32, ptr noundef %33, ptr noundef %34, ptr noundef %35)
  call void @llvm.lifetime.end.p0(i64 4, ptr %18) #11
  call void @llvm.lifetime.end.p0(i64 8, ptr %17) #11
  ret void
}