; Function Attrs: null_pointer_is_valid sspstrong uwtable
define internal void @dissect_complete_request_msg(ptr noundef %0, ptr noundef %1, ptr noundef %2, ptr readnone captures(none) %3, i16 noundef zeroext %4, i8 zeroext %5, i8 zeroext %6, ptr readnone captures(none) %7) #1 {
  %9 = load i32, ptr @hf_gtpv2_complete_req_msg_type, align 4
  %10 = tail call ptr @proto_tree_add_item(ptr noundef %2, i32 noundef %9, ptr noundef %0, i32 noundef 0, i32 noundef 1, i32 noundef 0)
  %11 = zext i16 %4 to i32
  %12 = add nsw i32 %11, -1
  %13 = tail call ptr @tvb_new_subset_length(ptr noundef %0, i32 noundef 1, i32 noundef %12)
  %14 = load ptr, ptr @nas_eps_handle, align 8
  %15 = tail call i32 @call_dissector(ptr noundef %14, ptr noundef %13, ptr noundef %1, ptr noundef %2)
  ret void
}